target datalayout = "e-m:e-p270:32:32-p271:32:32-p272:64:64-i64:64-i128:128-f80:128-n8:16:32:64-S128"
target triple = "x86_64-unknown-linux-gnu"

; Function Attrs: mustprogress nounwind uwtable
define noundef zeroext i1 @_ZN18OpenImageIO_v2_6_010wrap_clampERiii(ptr noundef nonnull align 4 dereferenceable(4) %coord, i32 noundef %origin, i32 noundef %width) #4 {
entry:
  %coord.addr = alloca ptr, align 8
  %origin.addr = alloca i32, align 4
  %width.addr = alloca i32, align 4
  store ptr %coord, ptr %coord.addr, align 8
  store i32 %origin, ptr %origin.addr, align 4
  store i32 %width, ptr %width.addr, align 4
  %0 = load ptr, ptr %coord.addr, align 8
  %1 = load i32, ptr %0, align 4
  %2 = load i32, ptr %origin.addr, align 4
  %cmp = icmp slt i32 %1, %2
  br i1 %cmp, label %if.then, label %if.else

if.then:                                          ; preds = %entry
  %3 = load i32, ptr %origin.addr, align 4
  %4 = load ptr, ptr %coord.addr, align 8
  store i32 %3, ptr %4, align 4
  br label %if.end4

if.else:                                          ; preds = %entry
  %5 = load ptr, ptr %coord.addr, align 8
  %6 = load i32, ptr %5, align 4
  %7 = load i32, ptr %origin.addr, align 4
  %8 = load i32, ptr %width.addr, align 4
  %add = add nsw i32 %7, %8
  %cmp1 = icmp sge i32 %6, %add
  br i1 %cmp1, label %if.then2, label %if.end

if.then2:                                         ; preds = %if.else
  %9 = load i32, ptr %origin.addr, align 4
  %10 = load i32, ptr %width.addr, align 4
  %add3 = add nsw i32 %9, %10
  %sub = sub nsw i32 %add3, 1
  %11 = load ptr, ptr %coord.addr, align 8
  store i32 %sub, ptr %11, align 4
  br label %if.end

if.end:                                           ; preds = %if.then2, %if.else
  br label %if.end4

if.end4:                                          ; preds = %if.end, %if.then
  ret i1 true
}