; Function Attrs: mustprogress nofree norecurse nosync nounwind willreturn memory(argmem: readwrite) uwtable
define noundef zeroext i1 @_ZN18OpenImageIO_v2_6_010wrap_clampERiii(ptr nocapture noundef nonnull align 4 dereferenceable(4) %coord, i32 noundef %origin, i32 noundef %width) local_unnamed_addr #20 {
entry:
  %0 = load i32, ptr %coord, align 4
  %cmp = icmp slt i32 %0, %origin
  br i1 %cmp, label %if.end4.sink.split, label %if.else

if.else:                                          ; preds = %entry
  %add = add nsw i32 %width, %origin
  %cmp1.not = icmp slt i32 %0, %add
  br i1 %cmp1.not, label %if.end4, label %if.then2

if.then2:                                         ; preds = %if.else
  %sub = add nsw i32 %add, -1
  br label %if.end4.sink.split

if.end4.sink.split:                               ; preds = %entry, %if.then2
  %sub.sink = phi i32 [ %sub, %if.then2 ], [ %origin, %entry ]
  store i32 %sub.sink, ptr %coord, align 4
  br label %if.end4

if.end4:                                          ; preds = %if.end4.sink.split, %if.else
  ret i1 true
}